; Function Attrs: mustprogress nounwind uwtable
define hidden void @_ZNK4llvh5Twine8toVectorERNS_15SmallVectorImplIcEE(ptr nocapture noundef nonnull readonly align 8 dereferenceable(18) %this, ptr noundef nonnull align 8 dereferenceable(16) %Out) local_unnamed_addr #0 align 2 {
entry:
  %OS = alloca %"class.llvh::raw_svector_ostream", align 8
  %BufferMode.i.i.i = getelementptr inbounds i8, ptr %OS, i64 32
  store i32 1, ptr %BufferMode.i.i.i, align 8
  %OutBufStart.i.i.i = getelementptr inbounds i8, ptr %OS, i64 8
  call void @llvm.memset.p0.i64(ptr noundef nonnull align 8 dereferenceable(24) %OutBufStart.i.i.i, i8 0, i64 24, i1 false)
  store ptr getelementptr inbounds ({ [14 x ptr] }, ptr @_ZTVN4llvh19raw_svector_ostreamE, i64 0, i32 0, i64 2), ptr %OS, align 8
  %OS.i = getelementptr inbounds i8, ptr %OS, i64 40
  store ptr %Out, ptr %OS.i, align 8
  call void @_ZN4llvh11raw_ostream16SetBufferAndModeEPcmNS0_10BufferKindE(ptr noundef nonnull align 8 dereferenceable(36) %OS, ptr noundef null, i64 noundef 0, i32 noundef 0) #8
  %agg.tmp.sroa.0.0.copyload.i = load ptr, ptr %this, align 8
  %LHSKind.i.i = getelementptr inbounds i8, ptr %this, i64 16
  %0 = load i8, ptr %LHSKind.i.i, align 8
  call void @_ZNK4llvh5Twine13printOneChildERNS_11raw_ostreamENS0_5ChildENS0_8NodeKindE(ptr nonnull align 8 poison, ptr noundef nonnull align 8 dereferenceable(36) %OS, ptr %agg.tmp.sroa.0.0.copyload.i, i8 noundef zeroext %0)
  %RHS.i = getelementptr inbounds i8, ptr %this, i64 8
  %agg.tmp2.sroa.0.0.copyload.i = load ptr, ptr %RHS.i, align 8
  %RHSKind.i.i = getelementptr inbounds i8, ptr %this, i64 17
  %1 = load i8, ptr %RHSKind.i.i, align 1
  call void @_ZNK4llvh5Twine13printOneChildERNS_11raw_ostreamENS0_5ChildENS0_8NodeKindE(ptr nonnull align 8 poison, ptr noundef nonnull align 8 dereferenceable(36) %OS, ptr %agg.tmp2.sroa.0.0.copyload.i, i8 noundef zeroext %1)
  call void @_ZN4llvh11raw_ostreamD2Ev(ptr noundef nonnull align 8 dereferenceable(36) %OS) #8
  ret void
}